; Function Attrs: mustprogress nounwind uwtable
define dso_local noundef zeroext i1 @_ZN4node6crypto13DiffieHellman4InitEii(ptr nocapture noundef nonnull align 8 dereferenceable(48) %this, i32 noundef %primeLength, i32 noundef %g) local_unnamed_addr #3 align 2 {
entry:
  %codes.i = alloca i32, align 4
  %dh_ = getelementptr inbounds i8, ptr %this, i64 40
  %call = tail call ptr @DH_new() #18
  %0 = load ptr, ptr %dh_, align 8
  store ptr %call, ptr %dh_, align 8
  %tobool.not.i.i = icmp eq ptr %0, null
  br i1 %tobool.not.i.i, label %_ZNSt10unique_ptrI5dh_stN4node15FunctionDeleterIS0_XadL_Z7DH_freeEEEEE5resetEPS0_.exit, label %if.then.i.i

if.then.i.i:                                      ; preds = %entry
  tail call void @DH_free(ptr noundef nonnull %0) #18
  %.pre = load ptr, ptr %dh_, align 8
  br label %_ZNSt10unique_ptrI5dh_stN4node15FunctionDeleterIS0_XadL_Z7DH_freeEEEEE5resetEPS0_.exit

_ZNSt10unique_ptrI5dh_stN4node15FunctionDeleterIS0_XadL_Z7DH_freeEEEEE5resetEPS0_.exit: ; preds = %entry, %if.then.i.i
  %1 = phi ptr [ %call, %entry ], [ %.pre, %if.then.i.i ]
  %call4 = tail call i32 @DH_generate_parameters_ex(ptr noundef %1, i32 noundef %primeLength, i32 noundef %g, ptr noundef null) #18
  %tobool.not = icmp eq i32 %call4, 0
  br i1 %tobool.not, label %return, label %if.end

if.end:                                           ; preds = %_ZNSt10unique_ptrI5dh_stN4node15FunctionDeleterIS0_XadL_Z7DH_freeEEEEE5resetEPS0_.exit
  call void @llvm.lifetime.start.p0(i64 4, ptr nonnull %codes.i)
  %2 = load ptr, ptr %dh_, align 8
  %call2.i = call i32 @DH_check(ptr noundef %2, ptr noundef nonnull %codes.i) #18
  %tobool.not.i = icmp ne i32 %call2.i, 0
  br i1 %tobool.not.i, label %if.end.i, label %_ZN4node6crypto13DiffieHellman13VerifyContextEv.exit

if.end.i:                                         ; preds = %if.end
  %3 = load i32, ptr %codes.i, align 4
  %verifyError_.i = getelementptr inbounds i8, ptr %this, i64 32
  store i32 %3, ptr %verifyError_.i, align 8
  br label %_ZN4node6crypto13DiffieHellman13VerifyContextEv.exit

_ZN4node6crypto13DiffieHellman13VerifyContextEv.exit: ; preds = %if.end, %if.end.i
  call void @llvm.lifetime.end.p0(i64 4, ptr nonnull %codes.i)
  br label %return

return:                                           ; preds = %_ZNSt10unique_ptrI5dh_stN4node15FunctionDeleterIS0_XadL_Z7DH_freeEEEEE5resetEPS0_.exit, %_ZN4node6crypto13DiffieHellman13VerifyContextEv.exit
  %retval.0 = phi i1 [ %tobool.not.i, %_ZN4node6crypto13DiffieHellman13VerifyContextEv.exit ], [ false, %_ZNSt10unique_ptrI5dh_stN4node15FunctionDeleterIS0_XadL_Z7DH_freeEEEEE5resetEPS0_.exit ]
  ret i1 %retval.0
}